; ModuleID = 'source-C-CXX/0/469.c'
source_filename = "source-C-CXX/0/469.c"
target datalayout = "e-m:e-p270:32:32-p271:32:32-p272:64:64-i64:64-f80:128-n8:16:32:64-S128"
target triple = "x86_64-pc-linux-gnu"

@p = dso_local local_unnamed_addr global i32 0, align 4
@total = dso_local local_unnamed_addr global i32 0, align 4
@.str = private unnamed_addr constant [3 x i8] c"%d\00", align 1
@.str.1 = private unnamed_addr constant [4 x i8] c"%d\0A\00", align 1

; Function Attrs: nofree nounwind sspstrong uwtable
define dso_local void @part(i32 %0) local_unnamed_addr #0 {
  %2 = icmp eq i32 %0, 1
  br i1 %2, label %25, label %3

3:                                                ; preds = %1
  %4 = sitofp i32 %0 to double
  %5 = tail call double @sqrt(double %4) #4
  %6 = fptosi double %5 to i32
  %7 = icmp slt i32 %6, 2
  br i1 %7, label %25, label %8

8:                                                ; preds = %3
  %9 = load i32, i32* @p, align 4, !tbaa !5
  br label %10

10:                                               ; preds = %8, %21
  %11 = phi i32 [ %22, %21 ], [ %9, %8 ]
  %12 = phi i32 [ %23, %21 ], [ 2, %8 ]
  %13 = icmp sgt i32 %11, %12
  br i1 %13, label %21, label %14

14:                                               ; preds = %10
  %15 = srem i32 %0, %12
  %16 = sdiv i32 %0, %12
  %17 = icmp eq i32 %15, 0
  br i1 %17, label %18, label %21

18:                                               ; preds = %14
  %19 = load i32, i32* @total, align 4, !tbaa !5
  %20 = add nsw i32 %19, 1
  store i32 %20, i32* @total, align 4, !tbaa !5
  store i32 %12, i32* @p, align 4, !tbaa !5
  tail call void @part(i32 %16)
  store i32 0, i32* @p, align 4, !tbaa !5
  br label %21

21:                                               ; preds = %10, %18, %14
  %22 = phi i32 [ %11, %10 ], [ 0, %18 ], [ %11, %14 ]
  %23 = add nuw i32 %12, 1
  %24 = icmp eq i32 %12, %6
  br i1 %24, label %25, label %10, !llvm.loop !9

25:                                               ; preds = %21, %3, %1
  ret void
}

; Function Attrs: argmemonly mustprogress nofree nosync nounwind willreturn
declare void @llvm.lifetime.start.p0i8(i64 immarg, i8* nocapture) #1

; Function Attrs: mustprogress nofree nounwind willreturn
declare double @sqrt(double) local_unnamed_addr #2

; Function Attrs: argmemonly mustprogress nofree nosync nounwind willreturn
declare void @llvm.lifetime.end.p0i8(i64 immarg, i8* nocapture) #1

; Function Attrs: nofree nounwind sspstrong uwtable
define dso_local i32 @main() local_unnamed_addr #0 {
  %1 = alloca i32, align 4
  %2 = alloca i32, align 4
  %3 = bitcast i32* %1 to i8*
  call void @llvm.lifetime.start.p0i8(i64 4, i8* nonnull %3) #4
  %4 = bitcast i32* %2 to i8*
  call void @llvm.lifetime.start.p0i8(i64 4, i8* nonnull %4) #4
  %5 = call i32 (i8*, ...) @__isoc99_scanf(i8* getelementptr inbounds ([3 x i8], [3 x i8]* @.str, i64 0, i64 0), i32* nonnull %1)
  %6 = load i32, i32* %1, align 4, !tbaa !5
  %7 = icmp slt i32 %6, 1
  br i1 %7, label %18, label %8

8:                                                ; preds = %0, %8
  %9 = phi i32 [ %15, %8 ], [ 1, %0 ]
  store i32 0, i32* @total, align 4, !tbaa !5
  store i32 0, i32* @p, align 4, !tbaa !5
  %10 = call i32 (i8*, ...) @__isoc99_scanf(i8* getelementptr inbounds ([3 x i8], [3 x i8]* @.str, i64 0, i64 0), i32* nonnull %2)
  %11 = load i32, i32* %2, align 4, !tbaa !5
  call void @part(i32 %11)
  %12 = load i32, i32* @total, align 4, !tbaa !5
  %13 = add nsw i32 %12, 1
  %14 = call i32 (i8*, ...) @printf(i8* nonnull dereferenceable(1) getelementptr inbounds ([4 x i8], [4 x i8]* @.str.1, i64 0, i64 0), i32 %13)
  %15 = add nuw nsw i32 %9, 1
  %16 = load i32, i32* %1, align 4, !tbaa !5
  %17 = icmp slt i32 %9, %16
  br i1 %17, label %8, label %18, !llvm.loop !11

18:                                               ; preds = %8, %0
  call void @llvm.lifetime.end.p0i8(i64 4, i8* nonnull %4) #4
  call void @llvm.lifetime.end.p0i8(i64 4, i8* nonnull %3) #4
  ret i32 0
}

; Function Attrs: nofree nounwind
declare noundef i32 @__isoc99_scanf(i8* nocapture noundef readonly, ...) local_unnamed_addr #3

; Function Attrs: nofree nounwind
declare noundef i32 @printf(i8* nocapture noundef readonly, ...) local_unnamed_addr #3


!llvm.module.flags = !{!0, !1, !2, !3}
!llvm.ident = !{!4}

!0 = !{i32 1, !"wchar_size", i32 4}
!1 = !{i32 7, !"PIC Level", i32 2}
!2 = !{i32 7, !"PIE Level", i32 2}
!3 = !{i32 7, !"uwtable", i32 1}
!4 = !{!"clang version 13.0.0"}
!5 = !{!6, !6, i64 0}
!6 = !{!"int", !7, i64 0}
!7 = !{!"omnipotent char", !8, i64 0}
!8 = !{!"Simple C/C++ TBAA"}
!9 = distinct !{!9, !10}
!10 = !{!"llvm.loop.mustprogress"}
!11 = distinct !{!11, !10}
